target datalayout = "e-m:e-p270:32:32-p271:32:32-p272:64:64-i64:64-i128:128-f80:128-n8:16:32:64-S128"
target triple = "x86_64-pc-linux-gnu"

%struct.x509_st = type { ptr, ptr, ptr, i32, i32, ptr, %struct.crypto_ex_data_st, i64, i64, i64, i64, i64, i64, ptr, ptr, ptr, ptr, ptr, ptr, [20 x i8], ptr }
%struct.crypto_ex_data_st = type { ptr }

; Function Attrs: nounwind uwtable
define internal i32 @check_ca(ptr noundef %0) #0 {
  %2 = alloca i32, align 4
  %3 = alloca ptr, align 8
  store ptr %0, ptr %3, align 8, !tbaa !6
  %4 = load ptr, ptr %3, align 8, !tbaa !6
  %5 = getelementptr inbounds nuw %struct.x509_st, ptr %4, i32 0, i32 9
  %6 = load i64, ptr %5, align 8, !tbaa !13
  %7 = and i64 %6, 2
  %8 = icmp ne i64 %7, 0
  br i1 %8, label %9, label %16

9:                                                ; preds = %1
  %10 = load ptr, ptr %3, align 8, !tbaa !6
  %11 = getelementptr inbounds nuw %struct.x509_st, ptr %10, i32 0, i32 10
  %12 = load i64, ptr %11, align 8, !tbaa !58
  %13 = and i64 %12, 4
  %14 = icmp ne i64 %13, 0
  br i1 %14, label %16, label %15

15:                                               ; preds = %9
  store i32 0, ptr %2, align 4
  br label %60

16:                                               ; preds = %9, %1
  %17 = load ptr, ptr %3, align 8, !tbaa !6
  %18 = getelementptr inbounds nuw %struct.x509_st, ptr %17, i32 0, i32 9
  %19 = load i64, ptr %18, align 8, !tbaa !13
  %20 = and i64 %19, 1
  %21 = icmp ne i64 %20, 0
  br i1 %21, label %22, label %30

22:                                               ; preds = %16
  %23 = load ptr, ptr %3, align 8, !tbaa !6
  %24 = getelementptr inbounds nuw %struct.x509_st, ptr %23, i32 0, i32 9
  %25 = load i64, ptr %24, align 8, !tbaa !13
  %26 = and i64 %25, 16
  %27 = icmp ne i64 %26, 0
  br i1 %27, label %28, label %29

28:                                               ; preds = %22
  store i32 1, ptr %2, align 4
  br label %60

29:                                               ; preds = %22
  store i32 0, ptr %2, align 4
  br label %60

30:                                               ; preds = %16
  %31 = load ptr, ptr %3, align 8, !tbaa !6
  %32 = getelementptr inbounds nuw %struct.x509_st, ptr %31, i32 0, i32 9
  %33 = load i64, ptr %32, align 8, !tbaa !13
  %34 = and i64 %33, 8256
  %35 = icmp eq i64 %34, 8256
  br i1 %35, label %36, label %37

36:                                               ; preds = %30
  store i32 3, ptr %2, align 4
  br label %60

37:                                               ; preds = %30
  %38 = load ptr, ptr %3, align 8, !tbaa !6
  %39 = getelementptr inbounds nuw %struct.x509_st, ptr %38, i32 0, i32 9
  %40 = load i64, ptr %39, align 8, !tbaa !13
  %41 = and i64 %40, 2
  %42 = icmp ne i64 %41, 0
  br i1 %42, label %43, label %44

43:                                               ; preds = %37
  store i32 4, ptr %2, align 4
  br label %60

44:                                               ; preds = %37
  %45 = load ptr, ptr %3, align 8, !tbaa !6
  %46 = getelementptr inbounds nuw %struct.x509_st, ptr %45, i32 0, i32 9
  %47 = load i64, ptr %46, align 8, !tbaa !13
  %48 = and i64 %47, 8
  %49 = icmp ne i64 %48, 0
  br i1 %49, label %50, label %57

50:                                               ; preds = %44
  %51 = load ptr, ptr %3, align 8, !tbaa !6
  %52 = getelementptr inbounds nuw %struct.x509_st, ptr %51, i32 0, i32 12
  %53 = load i64, ptr %52, align 8, !tbaa !65
  %54 = and i64 %53, 7
  %55 = icmp ne i64 %54, 0
  br i1 %55, label %56, label %57

56:                                               ; preds = %50
  store i32 5, ptr %2, align 4
  br label %60

57:                                               ; preds = %50, %44
  br label %58

58:                                               ; preds = %57
  br label %59

59:                                               ; preds = %58
  store i32 0, ptr %2, align 4
  br label %60

60:                                               ; preds = %59, %56, %43, %36, %29, %28, %15
  %61 = load i32, ptr %2, align 4
  ret i32 %61
}

; Function Attrs: nounwind uwtable
define internal i32 @purpose_smime(ptr noundef %0, i32 noundef %1) #0 {
  %3 = alloca i32, align 4
  %4 = alloca ptr, align 8
  %5 = alloca i32, align 4
  %6 = alloca i32, align 4
  %7 = alloca i32, align 4
  store ptr %0, ptr %4, align 8, !tbaa !6
  store i32 %1, ptr %5, align 4, !tbaa !11
  %8 = load ptr, ptr %4, align 8, !tbaa !6
  %9 = getelementptr inbounds nuw %struct.x509_st, ptr %8, i32 0, i32 9
  %10 = load i64, ptr %9, align 8, !tbaa !13
  %11 = and i64 %10, 4
  %12 = icmp ne i64 %11, 0
  br i1 %12, label %13, label %20

13:                                               ; preds = %2
  %14 = load ptr, ptr %4, align 8, !tbaa !6
  %15 = getelementptr inbounds nuw %struct.x509_st, ptr %14, i32 0, i32 11
  %16 = load i64, ptr %15, align 8, !tbaa !59
  %17 = and i64 %16, 4
  %18 = icmp ne i64 %17, 0
  br i1 %18, label %20, label %19

19:                                               ; preds = %13
  store i32 0, ptr %3, align 4
  br label %64

20:                                               ; preds = %13, %2
  %21 = load i32, ptr %5, align 4, !tbaa !11
  %22 = icmp ne i32 %21, 0
  br i1 %22, label %23, label %42

23:                                               ; preds = %20
  call void @llvm.lifetime.start.p0(i64 4, ptr %6) #7
  %24 = load ptr, ptr %4, align 8, !tbaa !6
  %25 = call i32 @check_ca(ptr noundef %24)
  store i32 %25, ptr %6, align 4, !tbaa !11
  %26 = load i32, ptr %6, align 4, !tbaa !11
  %27 = icmp ne i32 %26, 0
  br i1 %27, label %29, label %28

28:                                               ; preds = %23
  store i32 0, ptr %3, align 4
  store i32 1, ptr %7, align 4
  br label %41

29:                                               ; preds = %23
  %30 = load i32, ptr %6, align 4, !tbaa !11
  %31 = icmp ne i32 %30, 5
  br i1 %31, label %38, label %32

32:                                               ; preds = %29
  %33 = load ptr, ptr %4, align 8, !tbaa !6
  %34 = getelementptr inbounds nuw %struct.x509_st, ptr %33, i32 0, i32 12
  %35 = load i64, ptr %34, align 8, !tbaa !65
  %36 = and i64 %35, 2
  %37 = icmp ne i64 %36, 0
  br i1 %37, label %38, label %40

38:                                               ; preds = %32, %29
  %39 = load i32, ptr %6, align 4, !tbaa !11
  store i32 %39, ptr %3, align 4
  store i32 1, ptr %7, align 4
  br label %41

40:                                               ; preds = %32
  store i32 0, ptr %3, align 4
  store i32 1, ptr %7, align 4
  br label %41

41:                                               ; preds = %40, %38, %28
  call void @llvm.lifetime.end.p0(i64 4, ptr %6) #7
  br label %64

42:                                               ; preds = %20
  %43 = load ptr, ptr %4, align 8, !tbaa !6
  %44 = getelementptr inbounds nuw %struct.x509_st, ptr %43, i32 0, i32 9
  %45 = load i64, ptr %44, align 8, !tbaa !13
  %46 = and i64 %45, 8
  %47 = icmp ne i64 %46, 0
  br i1 %47, label %48, label %63

48:                                               ; preds = %42
  %49 = load ptr, ptr %4, align 8, !tbaa !6
  %50 = getelementptr inbounds nuw %struct.x509_st, ptr %49, i32 0, i32 12
  %51 = load i64, ptr %50, align 8, !tbaa !65
  %52 = and i64 %51, 32
  %53 = icmp ne i64 %52, 0
  br i1 %53, label %54, label %55

54:                                               ; preds = %48
  store i32 1, ptr %3, align 4
  br label %64

55:                                               ; preds = %48
  %56 = load ptr, ptr %4, align 8, !tbaa !6
  %57 = getelementptr inbounds nuw %struct.x509_st, ptr %56, i32 0, i32 12
  %58 = load i64, ptr %57, align 8, !tbaa !65
  %59 = and i64 %58, 128
  %60 = icmp ne i64 %59, 0
  br i1 %60, label %61, label %62

61:                                               ; preds = %55
  store i32 2, ptr %3, align 4
  br label %64

62:                                               ; preds = %55
  store i32 0, ptr %3, align 4
  br label %64

63:                                               ; preds = %42
  store i32 1, ptr %3, align 4
  br label %64

64:                                               ; preds = %63, %62, %61, %54, %41, %19
  %65 = load i32, ptr %3, align 4
  ret i32 %65
}

; Function Attrs: nounwind uwtable
define internal i32 @check_purpose_smime_sign(ptr noundef %0, ptr noundef %1, i32 noundef %2) #0 {
  %4 = alloca i32, align 4
  %5 = alloca ptr, align 8
  %6 = alloca ptr, align 8
  %7 = alloca i32, align 4
  %8 = alloca i32, align 4
  %9 = alloca i32, align 4
  store ptr %0, ptr %5, align 8, !tbaa !28
  store ptr %1, ptr %6, align 8, !tbaa !6
  store i32 %2, ptr %7, align 4, !tbaa !11
  call void @llvm.lifetime.start.p0(i64 4, ptr %8) #7
  %10 = load ptr, ptr %6, align 8, !tbaa !6
  %11 = load i32, ptr %7, align 4, !tbaa !11
  %12 = call i32 @purpose_smime(ptr noundef %10, i32 noundef %11)
  store i32 %12, ptr %8, align 4, !tbaa !11
  %13 = load i32, ptr %8, align 4, !tbaa !11
  %14 = icmp ne i32 %13, 0
  br i1 %14, label %15, label %18

15:                                               ; preds = %3
  %16 = load i32, ptr %7, align 4, !tbaa !11
  %17 = icmp ne i32 %16, 0
  br i1 %17, label %18, label %20

18:                                               ; preds = %15, %3
  %19 = load i32, ptr %8, align 4, !tbaa !11
  store i32 %19, ptr %4, align 4
  store i32 1, ptr %9, align 4
  br label %35

20:                                               ; preds = %15
  %21 = load ptr, ptr %6, align 8, !tbaa !6
  %22 = getelementptr inbounds nuw %struct.x509_st, ptr %21, i32 0, i32 9
  %23 = load i64, ptr %22, align 8, !tbaa !13
  %24 = and i64 %23, 2
  %25 = icmp ne i64 %24, 0
  br i1 %25, label %26, label %33

26:                                               ; preds = %20
  %27 = load ptr, ptr %6, align 8, !tbaa !6
  %28 = getelementptr inbounds nuw %struct.x509_st, ptr %27, i32 0, i32 10
  %29 = load i64, ptr %28, align 8, !tbaa !58
  %30 = and i64 %29, 192
  %31 = icmp ne i64 %30, 0
  br i1 %31, label %33, label %32

32:                                               ; preds = %26
  store i32 0, ptr %4, align 4
  store i32 1, ptr %9, align 4
  br label %35

33:                                               ; preds = %26, %20
  %34 = load i32, ptr %8, align 4, !tbaa !11
  store i32 %34, ptr %4, align 4
  store i32 1, ptr %9, align 4
  br label %35

35:                                               ; preds = %33, %32, %18
  call void @llvm.lifetime.end.p0(i64 4, ptr %8) #7
  %36 = load i32, ptr %4, align 4
  ret i32 %36
}